; Function Attrs: null_pointer_is_valid sspstrong uwtable
define internal fastcc range(i32 23, 29) i32 @dissect_rdm_pd_minimum_level(ptr noundef %0, ptr noundef %1, i8 noundef zeroext %2) unnamed_addr #1 {
  switch i8 %2, label %11 [
    i8 33, label %4
    i8 48, label %4
  ]

4:                                                ; preds = %3, %3
  %5 = load i32, ptr @hf_rdm_pd_minimum_level_increasing, align 4
  %6 = tail call ptr @proto_tree_add_item(ptr noundef %1, i32 noundef %5, ptr noundef %0, i32 noundef 23, i32 noundef 2, i32 noundef 0)
  %7 = load i32, ptr @hf_rdm_pd_minimum_level_decreasing, align 4
  %8 = tail call ptr @proto_tree_add_item(ptr noundef %1, i32 noundef %7, ptr noundef %0, i32 noundef 25, i32 noundef 2, i32 noundef 0)
  %9 = load i32, ptr @hf_rdm_pd_minimum_level_on_below_minimum, align 4
  %10 = tail call ptr @proto_tree_add_item(ptr noundef %1, i32 noundef %9, ptr noundef %0, i32 noundef 27, i32 noundef 1, i32 noundef 0)
  br label %11

11:                                               ; preds = %4, %3
  %.0 = phi i32 [ 23, %3 ], [ 28, %4 ]
  ret i32 %.0
}